target datalayout = "e-m:e-p270:32:32-p271:32:32-p272:64:64-i64:64-i128:128-f80:128-n8:16:32:64-S128"
target triple = "x86_64-pc-linux-gnu"

%struct.expert_field = type { i32, i32 }
%struct.MessageHeader = type { [4 x i8], %struct.Version, i8, i8, i32, i32, i32, ptr }
%struct.Version = type { i8, i8 }

@hf_Tango_Device_black_box_return_loop = internal global i32 0, align 4
@hf_Tango_Device_black_box_return = internal global i32 0, align 4
@hf_Tango_Device_black_box_n = internal global i32 0, align 4
@ei_tango_unknown_giop_msg = internal global %struct.expert_field zeroinitializer, align 4
@ei_tango_unknown_exception = internal global %struct.expert_field zeroinitializer, align 4
@ett_giop_sequence = internal global i32 0, align 4
@boundary = internal global i32 12, align 4
@.str.771 = private unnamed_addr constant [21 x i8] c"Unknown exception %d\00", align 1
@.str.772 = private unnamed_addr constant [24 x i8] c"Unknown GIOP message %d\00", align 1
@.str.889 = private unnamed_addr constant [39 x i8] c"sequence Tango_Device_black_box_return\00", align 1

; Function Attrs: null_pointer_is_valid sspstrong uwtable
define internal void @decode_Tango_Device_black_box(ptr noundef %0, ptr noundef %1, ptr noundef %2, ptr noundef %3, ptr noundef %4, ptr noundef %5, ptr noundef %6, i1 noundef zeroext %7) #0 {
  %9 = alloca ptr, align 8
  %10 = alloca ptr, align 8
  %11 = alloca ptr, align 8
  %12 = alloca ptr, align 8
  %13 = alloca ptr, align 8
  %14 = alloca ptr, align 8
  %15 = alloca ptr, align 8
  %16 = alloca i8, align 1
  %17 = alloca i32, align 4
  %18 = alloca i32, align 4
  %19 = alloca ptr, align 8
  store ptr %0, ptr %9, align 8
  store ptr %1, ptr %10, align 8
  store ptr %2, ptr %11, align 8
  store ptr %3, ptr %12, align 8
  store ptr %4, ptr %13, align 8
  store ptr %5, ptr %14, align 8
  store ptr %6, ptr %15, align 8
  %20 = zext i1 %7 to i8
  store i8 %20, ptr %16, align 1
  call void @llvm.lifetime.start.p0(i64 4, ptr %17) #6
  call void @llvm.lifetime.start.p0(i64 4, ptr %18) #6
  %21 = load ptr, ptr %14, align 8
  %22 = getelementptr inbounds nuw %struct.MessageHeader, ptr %21, i32 0, i32 3
  %23 = load i8, ptr %22, align 1
  %24 = zext i8 %23 to i32
  switch i32 %24, label %90 [
    i32 0, label %25
    i32 1, label %39
  ]

25:                                               ; preds = %8
  %26 = load ptr, ptr %11, align 8
  %27 = load i32, ptr @hf_Tango_Device_black_box_n, align 4
  %28 = load ptr, ptr %9, align 8
  %29 = load ptr, ptr %13, align 8
  %30 = load i32, ptr %29, align 4
  %31 = sub i32 %30, 4
  %32 = load ptr, ptr %9, align 8
  %33 = load ptr, ptr %13, align 8
  %34 = load i8, ptr %16, align 1, !range !6, !noundef !7
  %35 = trunc i8 %34 to i1
  %36 = load i32, ptr @boundary, align 4
  %37 = call i32 @get_CDR_long(ptr noundef %32, ptr noundef %33, i1 noundef zeroext %35, i32 noundef %36)
  %38 = call ptr @proto_tree_add_int(ptr noundef %26, i32 noundef %27, ptr noundef %28, i32 noundef %31, i32 noundef 4, i32 noundef %37)
  br label %98

39:                                               ; preds = %8
  %40 = load ptr, ptr %14, align 8
  %41 = getelementptr inbounds nuw %struct.MessageHeader, ptr %40, i32 0, i32 6
  %42 = load i32, ptr %41, align 8
  switch i32 %42, label %82 [
    i32 0, label %43
    i32 1, label %89
  ]

43:                                               ; preds = %39
  %44 = load ptr, ptr %9, align 8
  %45 = load ptr, ptr %13, align 8
  %46 = load i8, ptr %16, align 1, !range !6, !noundef !7
  %47 = trunc i8 %46 to i1
  %48 = load i32, ptr @boundary, align 4
  %49 = call i32 @get_CDR_ulong(ptr noundef %44, ptr noundef %45, i1 noundef zeroext %47, i32 noundef %48)
  store i32 %49, ptr %17, align 4
  %50 = load ptr, ptr %11, align 8
  %51 = load i32, ptr @hf_Tango_Device_black_box_return_loop, align 4
  %52 = load ptr, ptr %9, align 8
  %53 = load ptr, ptr %13, align 8
  %54 = load i32, ptr %53, align 4
  %55 = sub i32 %54, 4
  %56 = load i32, ptr %17, align 4
  %57 = call ptr @proto_tree_add_uint(ptr noundef %50, i32 noundef %51, ptr noundef %52, i32 noundef %55, i32 noundef 4, i32 noundef %56)
  call void @llvm.lifetime.start.p0(i64 8, ptr %19) #6
  %58 = load ptr, ptr %11, align 8
  store ptr %58, ptr %19, align 8
  %59 = load ptr, ptr %11, align 8
  %60 = load ptr, ptr %9, align 8
  %61 = load ptr, ptr %13, align 8
  %62 = load i32, ptr %61, align 4
  %63 = load i32, ptr @ett_giop_sequence, align 4
  %64 = call ptr @proto_tree_add_subtree(ptr noundef %59, ptr noundef %60, i32 noundef %62, i32 noundef -1, i32 noundef %63, ptr noundef null, ptr noundef @.str.889)
  store ptr %64, ptr %11, align 8
  store i32 0, ptr %18, align 4
  br label %65

65:                                               ; preds = %77, %43
  %66 = load i32, ptr %18, align 4
  %67 = load i32, ptr %17, align 4
  %68 = icmp ult i32 %66, %67
  br i1 %68, label %69, label %80

69:                                               ; preds = %65
  %70 = load ptr, ptr %11, align 8
  %71 = load ptr, ptr %9, align 8
  %72 = load ptr, ptr %13, align 8
  %73 = load i8, ptr %16, align 1, !range !6, !noundef !7
  %74 = trunc i8 %73 to i1
  %75 = load i32, ptr @boundary, align 4
  %76 = load i32, ptr @hf_Tango_Device_black_box_return, align 4
  call void @giop_add_CDR_string(ptr noundef %70, ptr noundef %71, ptr noundef %72, i1 noundef zeroext %74, i32 noundef %75, i32 noundef %76)
  br label %77

77:                                               ; preds = %69
  %78 = load i32, ptr %18, align 4
  %79 = add i32 %78, 1
  store i32 %79, ptr %18, align 4
  br label %65, !llvm.loop !41

80:                                               ; preds = %65
  %81 = load ptr, ptr %19, align 8
  store ptr %81, ptr %11, align 8
  call void @llvm.lifetime.end.p0(i64 8, ptr %19) #6
  br label %89

82:                                               ; preds = %39
  %83 = load ptr, ptr %10, align 8
  %84 = load ptr, ptr %12, align 8
  %85 = load ptr, ptr %14, align 8
  %86 = getelementptr inbounds nuw %struct.MessageHeader, ptr %85, i32 0, i32 6
  %87 = load i32, ptr %86, align 8
  %88 = call ptr (ptr, ptr, ptr, ptr, ...) @expert_add_info_format(ptr noundef %83, ptr noundef %84, ptr noundef @ei_tango_unknown_exception, ptr noundef @.str.771, i32 noundef %87)
  br label %89

89:                                               ; preds = %82, %39, %80
  br label %98

90:                                               ; preds = %8
  %91 = load ptr, ptr %10, align 8
  %92 = load ptr, ptr %12, align 8
  %93 = load ptr, ptr %14, align 8
  %94 = getelementptr inbounds nuw %struct.MessageHeader, ptr %93, i32 0, i32 3
  %95 = load i8, ptr %94, align 1
  %96 = zext i8 %95 to i32
  %97 = call ptr (ptr, ptr, ptr, ptr, ...) @expert_add_info_format(ptr noundef %91, ptr noundef %92, ptr noundef @ei_tango_unknown_giop_msg, ptr noundef @.str.772, i32 noundef %96)
  br label %98

98:                                               ; preds = %90, %89, %25
  call void @llvm.lifetime.end.p0(i64 4, ptr %18) #6
  call void @llvm.lifetime.end.p0(i64 4, ptr %17) #6
  ret void
}