; Function Attrs: null_pointer_is_valid sspstrong uwtable
define internal fastcc void @decode_Tango_Device_black_box(ptr noundef %0, ptr noundef %1, ptr noundef %2, ptr noundef %3, ptr noundef %4, ptr noundef readonly captures(none) %5, i1 noundef zeroext %6) unnamed_addr #0 {
  %8 = getelementptr inbounds nuw i8, ptr %5, i64 7
  %9 = load i8, ptr %8, align 1
  switch i8 %9, label %32 [
    i8 0, label %10
    i8 1, label %16
  ]

10:                                               ; preds = %7
  %11 = load i32, ptr @hf_Tango_Device_black_box_n, align 4
  %12 = load i32, ptr %4, align 4
  %13 = add i32 %12, -4
  %14 = tail call i32 @get_CDR_long(ptr noundef %0, ptr noundef %4, i1 noundef zeroext %6, i32 noundef 12)
  %15 = tail call ptr @proto_tree_add_int(ptr noundef %2, i32 noundef %11, ptr noundef %0, i32 noundef %13, i32 noundef 4, i32 noundef %14)
  br label %.loopexit

16:                                               ; preds = %7
  %17 = getelementptr inbounds nuw i8, ptr %5, i64 16
  %18 = load i32, ptr %17, align 8
  switch i32 %18, label %30 [
    i32 0, label %19
    i32 1, label %.loopexit
  ]

19:                                               ; preds = %16
  %20 = tail call i32 @get_CDR_ulong(ptr noundef %0, ptr noundef %4, i1 noundef zeroext %6, i32 noundef 12)
  %21 = load i32, ptr @hf_Tango_Device_black_box_return_loop, align 4
  %22 = load i32, ptr %4, align 4
  %23 = add i32 %22, -4
  %24 = tail call ptr @proto_tree_add_uint(ptr noundef %2, i32 noundef %21, ptr noundef %0, i32 noundef %23, i32 noundef 4, i32 noundef %20)
  %25 = load i32, ptr %4, align 4
  %26 = load i32, ptr @ett_giop_sequence, align 4
  %27 = tail call ptr @proto_tree_add_subtree(ptr noundef %2, ptr noundef %0, i32 noundef %25, i32 noundef -1, i32 noundef %26, ptr noundef null, ptr noundef nonnull @.str.889)
  %.not = icmp eq i32 %20, 0
  br i1 %.not, label %.loopexit, label %.lr.ph

.lr.ph:                                           ; preds = %19, %.lr.ph
  %.01 = phi i32 [ %29, %.lr.ph ], [ 0, %19 ]
  %28 = load i32, ptr @hf_Tango_Device_black_box_return, align 4
  tail call void @giop_add_CDR_string(ptr noundef %27, ptr noundef %0, ptr noundef %4, i1 noundef zeroext %6, i32 noundef 12, i32 noundef %28)
  %29 = add nuw i32 %.01, 1
  %exitcond.not = icmp eq i32 %29, %20
  br i1 %exitcond.not, label %.loopexit, label %.lr.ph, !llvm.loop !71

30:                                               ; preds = %16
  %31 = tail call ptr (ptr, ptr, ptr, ptr, ...) @expert_add_info_format(ptr noundef %1, ptr noundef %3, ptr noundef nonnull @ei_tango_unknown_exception, ptr noundef nonnull @.str.771, i32 noundef %18)
  br label %.loopexit

32:                                               ; preds = %7
  %33 = zext i8 %9 to i32
  %34 = tail call ptr (ptr, ptr, ptr, ptr, ...) @expert_add_info_format(ptr noundef %1, ptr noundef %3, ptr noundef nonnull @ei_tango_unknown_giop_msg, ptr noundef nonnull @.str.772, i32 noundef %33)
  br label %.loopexit

.loopexit:                                        ; preds = %.lr.ph, %19, %16, %30, %32, %10
  ret void
}